; Function Attrs: nounwind uwtable
define i32 @intoasc(ptr noundef %0, ptr noundef %1) local_unnamed_addr #0 {
  %3 = tail call ptr @__errno_location() #15
  store i32 0, ptr %3, align 4
  %4 = tail call ptr @PGTYPESinterval_to_asc(ptr noundef %0) #16
  %.not = icmp eq ptr %4, null
  br i1 %.not, label %5, label %8

5:                                                ; preds = %2
  %6 = load i32, ptr %3, align 4
  %7 = sub i32 0, %6
  br label %10

8:                                                ; preds = %2
  %9 = tail call ptr @strcpy(ptr noundef nonnull dereferenceable(1) %1, ptr noundef nonnull dereferenceable(1) %4) #16
  tail call void @free(ptr noundef nonnull %4) #16
  br label %10

10:                                               ; preds = %8, %5
  %.0 = phi i32 [ 0, %8 ], [ %7, %5 ]
  ret i32 %.0
}